; Function Attrs: mustprogress nofree norecurse nosync nounwind willreturn memory(argmem: write) uwtable
define void @_ZN8proxygen23DefaultHTTPCodecFactoryC2Eb(ptr nocapture noundef nonnull writeonly align 8 dereferenceable(41) %this, i1 noundef zeroext %forceHTTP1xCodecTo1_1) unnamed_addr #3 align 2 personality ptr @__gxx_personality_v0 {
entry:
  %frombool = zext i1 %forceHTTP1xCodecTo1_1 to i8
  %useStrictValidationFn_.i = getelementptr inbounds i8, ptr %this, i64 8
  %_M_manager.i.i.i = getelementptr inbounds i8, ptr %this, i64 24
  %_M_invoker.i.i = getelementptr inbounds i8, ptr %this, i64 32
  tail call void @llvm.memset.p0.i64(ptr noundef nonnull align 8 dereferenceable(16) %useStrictValidationFn_.i, i8 0, i64 16, i1 false)
  store ptr @_ZNSt17_Function_handlerIFbvEN8proxygen16HTTPCodecFactory22useStrictValidationFn_MUlvE_EE9_M_invokeERKSt9_Any_data, ptr %_M_invoker.i.i, align 8
  store ptr @_ZNSt17_Function_handlerIFbvEN8proxygen16HTTPCodecFactory22useStrictValidationFn_MUlvE_EE10_M_managerERSt9_Any_dataRKS6_St18_Manager_operation, ptr %_M_manager.i.i.i, align 8
  store ptr getelementptr inbounds ({ [5 x ptr] }, ptr @_ZTVN8proxygen23DefaultHTTPCodecFactoryE, i64 0, i32 0, i64 2), ptr %this, align 8
  %forceHTTP1xCodecTo1_1_ = getelementptr inbounds i8, ptr %this, i64 40
  store i8 %frombool, ptr %forceHTTP1xCodecTo1_1_, align 8
  ret void
}